target datalayout = "e-m:e-p270:32:32-p271:32:32-p272:64:64-i64:64-i128:128-f80:128-n8:16:32:64-S128"
target triple = "x86_64-pc-linux-gnu"

%struct.PROV_ECDSA_CTX = type { ptr, ptr, ptr, i32, i8, [256 x i8], i64, [50 x i8], ptr, ptr, i64, ptr, i64, ptr, ptr, i32 }

; Function Attrs: nounwind uwtable
define internal i32 @ecdsa_sign_directly(ptr noundef %0, ptr noundef %1, ptr noundef %2, i64 noundef %3, ptr noundef %4, i64 noundef %5) #0 {
  %7 = alloca i32, align 4
  %8 = alloca ptr, align 8
  %9 = alloca ptr, align 8
  %10 = alloca ptr, align 8
  %11 = alloca i64, align 8
  %12 = alloca ptr, align 8
  %13 = alloca i64, align 8
  %14 = alloca ptr, align 8
  %15 = alloca i32, align 4
  %16 = alloca i32, align 4
  %17 = alloca i64, align 8
  %18 = alloca i32, align 4
  %19 = alloca ptr, align 8
  store ptr %0, ptr %8, align 8, !tbaa !3
  store ptr %1, ptr %9, align 8, !tbaa !7
  store ptr %2, ptr %10, align 8, !tbaa !21
  store i64 %3, ptr %11, align 8, !tbaa !23
  store ptr %4, ptr %12, align 8, !tbaa !7
  store i64 %5, ptr %13, align 8, !tbaa !23
  call void @llvm.lifetime.start.p0(i64 8, ptr %14) #7
  %20 = load ptr, ptr %8, align 8, !tbaa !3
  store ptr %20, ptr %14, align 8, !tbaa !3
  call void @llvm.lifetime.start.p0(i64 4, ptr %15) #7
  call void @llvm.lifetime.start.p0(i64 4, ptr %16) #7
  call void @llvm.lifetime.start.p0(i64 8, ptr %17) #7
  %21 = load ptr, ptr %14, align 8, !tbaa !3
  %22 = getelementptr inbounds nuw %struct.PROV_ECDSA_CTX, ptr %21, i32 0, i32 2
  %23 = load ptr, ptr %22, align 8, !tbaa !29
  %24 = call i32 @ECDSA_size(ptr noundef %23)
  %25 = sext i32 %24 to i64
  store i64 %25, ptr %17, align 8, !tbaa !23
  %26 = call i32 @ossl_prov_is_running()
  %27 = icmp ne i32 %26, 0
  br i1 %27, label %29, label %28

28:                                               ; preds = %6
  store i32 0, ptr %7, align 4
  store i32 1, ptr %18, align 4
  br label %110

29:                                               ; preds = %6
  %30 = load ptr, ptr %9, align 8, !tbaa !7
  %31 = icmp eq ptr %30, null
  br i1 %31, label %32, label %35

32:                                               ; preds = %29
  %33 = load i64, ptr %17, align 8, !tbaa !23
  %34 = load ptr, ptr %10, align 8, !tbaa !21
  store i64 %33, ptr %34, align 8, !tbaa !23
  store i32 1, ptr %7, align 4
  store i32 1, ptr %18, align 4
  br label %110

35:                                               ; preds = %29
  %36 = load i64, ptr %11, align 8, !tbaa !23
  %37 = load i64, ptr %17, align 8, !tbaa !23
  %38 = icmp ult i64 %36, %37
  br i1 %38, label %39, label %40

39:                                               ; preds = %35
  store i32 0, ptr %7, align 4
  store i32 1, ptr %18, align 4
  br label %110

40:                                               ; preds = %35
  %41 = load ptr, ptr %14, align 8, !tbaa !3
  %42 = getelementptr inbounds nuw %struct.PROV_ECDSA_CTX, ptr %41, i32 0, i32 10
  %43 = load i64, ptr %42, align 8, !tbaa !40
  %44 = icmp ne i64 %43, 0
  br i1 %44, label %45, label %52

45:                                               ; preds = %40
  %46 = load i64, ptr %13, align 8, !tbaa !23
  %47 = load ptr, ptr %14, align 8, !tbaa !3
  %48 = getelementptr inbounds nuw %struct.PROV_ECDSA_CTX, ptr %47, i32 0, i32 10
  %49 = load i64, ptr %48, align 8, !tbaa !40
  %50 = icmp ne i64 %46, %49
  br i1 %50, label %51, label %52

51:                                               ; preds = %45
  store i32 0, ptr %7, align 4
  store i32 1, ptr %18, align 4
  br label %110

52:                                               ; preds = %45, %40
  %53 = load ptr, ptr %14, align 8, !tbaa !3
  %54 = getelementptr inbounds nuw %struct.PROV_ECDSA_CTX, ptr %53, i32 0, i32 15
  %55 = load i32, ptr %54, align 8, !tbaa !41
  %56 = icmp ne i32 %55, 0
  br i1 %56, label %57, label %87

57:                                               ; preds = %52
  call void @llvm.lifetime.start.p0(i64 8, ptr %19) #7
  store ptr null, ptr %19, align 8, !tbaa !7
  %58 = load ptr, ptr %14, align 8, !tbaa !3
  %59 = getelementptr inbounds nuw %struct.PROV_ECDSA_CTX, ptr %58, i32 0, i32 7
  %60 = getelementptr inbounds [50 x i8], ptr %59, i64 0, i64 0
  %61 = load i8, ptr %60, align 8, !tbaa !35
  %62 = sext i8 %61 to i32
  %63 = icmp ne i32 %62, 0
  br i1 %63, label %64, label %68

64:                                               ; preds = %57
  %65 = load ptr, ptr %14, align 8, !tbaa !3
  %66 = getelementptr inbounds nuw %struct.PROV_ECDSA_CTX, ptr %65, i32 0, i32 7
  %67 = getelementptr inbounds [50 x i8], ptr %66, i64 0, i64 0
  store ptr %67, ptr %19, align 8, !tbaa !7
  br label %68

68:                                               ; preds = %64, %57
  %69 = load ptr, ptr %12, align 8, !tbaa !7
  %70 = load i64, ptr %13, align 8, !tbaa !23
  %71 = trunc i64 %70 to i32
  %72 = load ptr, ptr %9, align 8, !tbaa !7
  %73 = load ptr, ptr %14, align 8, !tbaa !3
  %74 = getelementptr inbounds nuw %struct.PROV_ECDSA_CTX, ptr %73, i32 0, i32 2
  %75 = load ptr, ptr %74, align 8, !tbaa !29
  %76 = load ptr, ptr %14, align 8, !tbaa !3
  %77 = getelementptr inbounds nuw %struct.PROV_ECDSA_CTX, ptr %76, i32 0, i32 15
  %78 = load i32, ptr %77, align 8, !tbaa !41
  %79 = load ptr, ptr %19, align 8, !tbaa !7
  %80 = load ptr, ptr %14, align 8, !tbaa !3
  %81 = getelementptr inbounds nuw %struct.PROV_ECDSA_CTX, ptr %80, i32 0, i32 0
  %82 = load ptr, ptr %81, align 8, !tbaa !9
  %83 = load ptr, ptr %14, align 8, !tbaa !3
  %84 = getelementptr inbounds nuw %struct.PROV_ECDSA_CTX, ptr %83, i32 0, i32 1
  %85 = load ptr, ptr %84, align 8, !tbaa !18
  %86 = call i32 @ossl_ecdsa_deterministic_sign(ptr noundef %69, i32 noundef %71, ptr noundef %72, ptr noundef %16, ptr noundef %75, i32 noundef %78, ptr noundef %79, ptr noundef %82, ptr noundef %85)
  store i32 %86, ptr %15, align 4, !tbaa !26
  call void @llvm.lifetime.end.p0(i64 8, ptr %19) #7
  br label %102

87:                                               ; preds = %52
  %88 = load ptr, ptr %12, align 8, !tbaa !7
  %89 = load i64, ptr %13, align 8, !tbaa !23
  %90 = trunc i64 %89 to i32
  %91 = load ptr, ptr %9, align 8, !tbaa !7
  %92 = load ptr, ptr %14, align 8, !tbaa !3
  %93 = getelementptr inbounds nuw %struct.PROV_ECDSA_CTX, ptr %92, i32 0, i32 13
  %94 = load ptr, ptr %93, align 8, !tbaa !30
  %95 = load ptr, ptr %14, align 8, !tbaa !3
  %96 = getelementptr inbounds nuw %struct.PROV_ECDSA_CTX, ptr %95, i32 0, i32 14
  %97 = load ptr, ptr %96, align 8, !tbaa !31
  %98 = load ptr, ptr %14, align 8, !tbaa !3
  %99 = getelementptr inbounds nuw %struct.PROV_ECDSA_CTX, ptr %98, i32 0, i32 2
  %100 = load ptr, ptr %99, align 8, !tbaa !29
  %101 = call i32 @ECDSA_sign_ex(i32 noundef 0, ptr noundef %88, i32 noundef %90, ptr noundef %91, ptr noundef %16, ptr noundef %94, ptr noundef %97, ptr noundef %100)
  store i32 %101, ptr %15, align 4, !tbaa !26
  br label %102

102:                                              ; preds = %87, %68
  %103 = load i32, ptr %15, align 4, !tbaa !26
  %104 = icmp sle i32 %103, 0
  br i1 %104, label %105, label %106

105:                                              ; preds = %102
  store i32 0, ptr %7, align 4
  store i32 1, ptr %18, align 4
  br label %110

106:                                              ; preds = %102
  %107 = load i32, ptr %16, align 4, !tbaa !26
  %108 = zext i32 %107 to i64
  %109 = load ptr, ptr %10, align 8, !tbaa !21
  store i64 %108, ptr %109, align 8, !tbaa !23
  store i32 1, ptr %7, align 4
  store i32 1, ptr %18, align 4
  br label %110

110:                                              ; preds = %106, %105, %51, %39, %32, %28
  call void @llvm.lifetime.end.p0(i64 8, ptr %17) #7
  call void @llvm.lifetime.end.p0(i64 4, ptr %16) #7
  call void @llvm.lifetime.end.p0(i64 4, ptr %15) #7
  call void @llvm.lifetime.end.p0(i64 8, ptr %14) #7
  %111 = load i32, ptr %7, align 4
  ret i32 %111
}