; Function Attrs: nounwind uwtable
define internal fastcc range(i32 0, 2) i32 @ecdsa_sign_directly(ptr noundef %0, ptr noundef %1, ptr noundef writeonly captures(none) %2, i64 noundef %3, ptr noundef %4, i64 noundef %5) unnamed_addr #0 {
  %7 = alloca i32, align 4
  call void @llvm.lifetime.start.p0(i64 4, ptr nonnull %7) #8
  %8 = getelementptr inbounds nuw i8, ptr %0, i64 16
  %9 = load ptr, ptr %8, align 8, !tbaa !19
  %10 = tail call i32 @ECDSA_size(ptr noundef %9) #8
  %11 = sext i32 %10 to i64
  %12 = tail call i32 @ossl_prov_is_running() #8
  %.not = icmp eq i32 %12, 0
  br i1 %.not, label %44, label %13

13:                                               ; preds = %6
  %14 = icmp eq ptr %1, null
  br i1 %14, label %.sink.split, label %15

15:                                               ; preds = %13
  %16 = icmp ult i64 %3, %11
  br i1 %16, label %44, label %17

17:                                               ; preds = %15
  %18 = getelementptr inbounds nuw i8, ptr %0, i64 368
  %19 = load i64, ptr %18, align 8, !tbaa !27
  %.not33 = icmp eq i64 %19, 0
  %.not34 = icmp eq i64 %5, %19
  %or.cond = or i1 %.not33, %.not34
  br i1 %or.cond, label %20, label %44

20:                                               ; preds = %17
  %21 = getelementptr inbounds nuw i8, ptr %0, i64 408
  %22 = load i32, ptr %21, align 8, !tbaa !39
  %.not35 = icmp eq i32 %22, 0
  %23 = load ptr, ptr %8, align 8, !tbaa !19
  br i1 %.not35, label %32, label %24

24:                                               ; preds = %20
  %25 = getelementptr inbounds nuw i8, ptr %0, i64 296
  %26 = load i8, ptr %25, align 8, !tbaa !34
  %.not36 = icmp eq i8 %26, 0
  %spec.select = select i1 %.not36, ptr null, ptr %25
  %27 = trunc i64 %5 to i32
  %28 = load ptr, ptr %0, align 8, !tbaa !3
  %29 = getelementptr inbounds nuw i8, ptr %0, i64 8
  %30 = load ptr, ptr %29, align 8, !tbaa !16
  %31 = call i32 @ossl_ecdsa_deterministic_sign(ptr noundef %4, i32 noundef %27, ptr noundef nonnull %1, ptr noundef nonnull %7, ptr noundef %23, i32 noundef %22, ptr noundef %spec.select, ptr noundef %28, ptr noundef %30) #8
  br label %39

32:                                               ; preds = %20
  %33 = trunc i64 %5 to i32
  %34 = getelementptr inbounds nuw i8, ptr %0, i64 392
  %35 = load ptr, ptr %34, align 8, !tbaa !29
  %36 = getelementptr inbounds nuw i8, ptr %0, i64 400
  %37 = load ptr, ptr %36, align 8, !tbaa !30
  %38 = call i32 @ECDSA_sign_ex(i32 noundef 0, ptr noundef %4, i32 noundef %33, ptr noundef nonnull %1, ptr noundef nonnull %7, ptr noundef %35, ptr noundef %37, ptr noundef %23) #8
  br label %39

39:                                               ; preds = %32, %24
  %.030 = phi i32 [ %31, %24 ], [ %38, %32 ]
  %40 = icmp slt i32 %.030, 1
  br i1 %40, label %44, label %41

41:                                               ; preds = %39
  %42 = load i32, ptr %7, align 4, !tbaa !21
  %43 = zext i32 %42 to i64
  br label %.sink.split

.sink.split:                                      ; preds = %13, %41
  %.sink = phi i64 [ %43, %41 ], [ %11, %13 ]
  store i64 %.sink, ptr %2, align 8, !tbaa !20
  br label %44

44:                                               ; preds = %.sink.split, %39, %17, %15, %6
  %.029 = phi i32 [ 0, %6 ], [ 0, %15 ], [ 0, %17 ], [ 0, %39 ], [ 1, %.sink.split ]
  call void @llvm.lifetime.end.p0(i64 4, ptr nonnull %7) #8
  ret i32 %.029
}